; Function Attrs: mustprogress nounwind uwtable
define internal noundef zeroext i1 @"_ZNSt17_Function_handlerIFbPKN4llvm8ConstantEEZL27isNonZeroModBitWidthOrUndefRKNS0_19MachineRegisterInfoENS0_8RegisterEjE3$_0E9_M_invokeERKSt9_Any_dataOS3_"(ptr nocapture noundef nonnull readonly align 8 dereferenceable(16) %0, ptr nocapture noundef nonnull readonly align 8 dereferenceable(8) %1) #0 align 2 {
  %.val = load i32, ptr %0, align 8
  %.val2 = load ptr, ptr %1, align 8
  %.not.i.i.i.i.i = icmp eq ptr %.val2, null
  br i1 %.not.i.i.i.i.i, label %"_ZSt10__invoke_rIbRZL27isNonZeroModBitWidthOrUndefRKN4llvm19MachineRegisterInfoENS0_8RegisterEjE3$_0JPKNS0_8ConstantEEENSt9enable_ifIX16is_invocable_r_vIT_T0_DpT1_EESB_E4typeEOSC_DpOSD_.exit", label %3

3:                                                ; preds = %2
  %4 = load i8, ptr %.val2, align 8
  %5 = icmp eq i8 %4, 17
  br i1 %5, label %_ZN4llvm16dyn_cast_or_nullINS_11ConstantIntEKNS_8ConstantEEEDaPT0_.exit.i.i.i, label %"_ZSt10__invoke_rIbRZL27isNonZeroModBitWidthOrUndefRKN4llvm19MachineRegisterInfoENS0_8RegisterEjE3$_0JPKNS0_8ConstantEEENSt9enable_ifIX16is_invocable_r_vIT_T0_DpT1_EESB_E4typeEOSC_DpOSD_.exit"

_ZN4llvm16dyn_cast_or_nullINS_11ConstantIntEKNS_8ConstantEEEDaPT0_.exit.i.i.i: ; preds = %3
  %6 = getelementptr inbounds nuw i8, ptr %.val2, i64 24
  %7 = zext i32 %.val to i64
  %8 = tail call noundef i64 @_ZNK4llvm5APInt4uremEm(ptr noundef nonnull align 8 dereferenceable(12) %6, i64 noundef %7) #18
  %9 = icmp ne i64 %8, 0
  br label %"_ZSt10__invoke_rIbRZL27isNonZeroModBitWidthOrUndefRKN4llvm19MachineRegisterInfoENS0_8RegisterEjE3$_0JPKNS0_8ConstantEEENSt9enable_ifIX16is_invocable_r_vIT_T0_DpT1_EESB_E4typeEOSC_DpOSD_.exit"

"_ZSt10__invoke_rIbRZL27isNonZeroModBitWidthOrUndefRKN4llvm19MachineRegisterInfoENS0_8RegisterEjE3$_0JPKNS0_8ConstantEEENSt9enable_ifIX16is_invocable_r_vIT_T0_DpT1_EESB_E4typeEOSC_DpOSD_.exit": ; preds = %2, %3, %_ZN4llvm16dyn_cast_or_nullINS_11ConstantIntEKNS_8ConstantEEEDaPT0_.exit.i.i.i
  %10 = phi i1 [ %9, %_ZN4llvm16dyn_cast_or_nullINS_11ConstantIntEKNS_8ConstantEEEDaPT0_.exit.i.i.i ], [ true, %3 ], [ true, %2 ]
  ret i1 %10
}